; Function Attrs: mustprogress nounwind uwtable
define dso_local void @_ZN16b3CpuNarrowPhaseD2Ev(ptr nocapture noundef nonnull align 8 dereferenceable(28) %this) unnamed_addr #6 align 2 {
entry:
  store ptr getelementptr inbounds ({ [5 x ptr] }, ptr @_ZTV16b3CpuNarrowPhase, i64 0, i32 0, i64 2), ptr %this, align 8
  %m_data = getelementptr inbounds i8, ptr %this, i64 8
  %0 = load ptr, ptr %m_data, align 8
  %isnull = icmp eq ptr %0, null
  br i1 %isnull, label %delete.end, label %delete.notnull

delete.notnull:                                   ; preds = %entry
  tail call void @_ZN28b3CpuNarrowPhaseInternalDataD2Ev(ptr noundef nonnull align 8 dereferenceable(340) %0) #16
  tail call void @_ZdlPv(ptr noundef nonnull %0) #17
  br label %delete.end

delete.end:                                       ; preds = %delete.notnull, %entry
  ret void
}